target datalayout = "e-m:e-p270:32:32-p271:32:32-p272:64:64-i64:64-i128:128-f80:128-n8:16:32:64-S128"
target triple = "x86_64-pc-linux-gnu"

; Function Attrs: nounwind uwtable
define void @lv_draw_sw_mask_line_angle_init(ptr noundef %0, i32 noundef %1, i32 noundef %2, i16 noundef signext %3, i32 noundef %4) #0 {
  %6 = alloca ptr, align 8
  %7 = alloca i32, align 4
  %8 = alloca i32, align 4
  %9 = alloca i16, align 2
  %10 = alloca i32, align 4
  %11 = alloca i32, align 4
  %12 = alloca i32, align 4
  store ptr %0, ptr %6, align 8, !tbaa !3
  store i32 %1, ptr %7, align 4, !tbaa !7
  store i32 %2, ptr %8, align 4, !tbaa !7
  store i16 %3, ptr %9, align 2, !tbaa !42
  store i32 %4, ptr %10, align 4, !tbaa !7
  %13 = load i16, ptr %9, align 2, !tbaa !42
  %14 = sext i16 %13 to i32
  %15 = icmp sgt i32 %14, 180
  br i1 %15, label %16, label %21

16:                                               ; preds = %5
  %17 = load i16, ptr %9, align 2, !tbaa !42
  %18 = sext i16 %17 to i32
  %19 = sub nsw i32 %18, 180
  %20 = trunc i32 %19 to i16
  store i16 %20, ptr %9, align 2, !tbaa !42
  br label %21

21:                                               ; preds = %16, %5
  call void @llvm.lifetime.start.p0(i64 4, ptr %11) #4
  call void @llvm.lifetime.start.p0(i64 4, ptr %12) #4
  %22 = load i16, ptr %9, align 2, !tbaa !42
  %23 = sext i16 %22 to i32
  %24 = add nsw i32 %23, 90
  %25 = trunc i32 %24 to i16
  %26 = call i32 @lv_trigo_sin(i16 noundef signext %25)
  %27 = ashr i32 %26, 5
  %28 = load i32, ptr %7, align 4, !tbaa !7
  %29 = add nsw i32 %27, %28
  store i32 %29, ptr %11, align 4, !tbaa !7
  %30 = load i16, ptr %9, align 2, !tbaa !42
  %31 = call i32 @lv_trigo_sin(i16 noundef signext %30)
  %32 = ashr i32 %31, 5
  %33 = load i32, ptr %8, align 4, !tbaa !7
  %34 = add nsw i32 %32, %33
  store i32 %34, ptr %12, align 4, !tbaa !7
  %35 = load ptr, ptr %6, align 8, !tbaa !3
  %36 = load i32, ptr %7, align 4, !tbaa !7
  %37 = load i32, ptr %8, align 4, !tbaa !7
  %38 = load i32, ptr %11, align 4, !tbaa !7
  %39 = load i32, ptr %12, align 4, !tbaa !7
  %40 = load i32, ptr %10, align 4, !tbaa !7
  call void @lv_draw_sw_mask_line_points_init(ptr noundef %35, i32 noundef %36, i32 noundef %37, i32 noundef %38, i32 noundef %39, i32 noundef %40)
  call void @llvm.lifetime.end.p0(i64 4, ptr %12) #4
  call void @llvm.lifetime.end.p0(i64 4, ptr %11) #4
  ret void
}