; Function Attrs: nounwind uwtable
define void @lv_draw_sw_mask_line_angle_init(ptr noundef %0, i32 noundef %1, i32 noundef %2, i16 noundef signext %3, i32 noundef %4) local_unnamed_addr #0 {
  %6 = icmp sgt i16 %3, 180
  %7 = add nsw i16 %3, -180
  %spec.select = select i1 %6, i16 %7, i16 %3
  %8 = add nsw i16 %spec.select, 90
  %9 = tail call i32 @lv_trigo_sin(i16 noundef signext %8) #7
  %10 = ashr i32 %9, 5
  %11 = add nsw i32 %10, %1
  %12 = tail call i32 @lv_trigo_sin(i16 noundef signext %spec.select) #7
  %13 = ashr i32 %12, 5
  %14 = add nsw i32 %13, %2
  tail call void @lv_draw_sw_mask_line_points_init(ptr noundef %0, i32 noundef %1, i32 noundef %2, i32 noundef %11, i32 noundef %14, i32 noundef %4)
  ret void
}